; Function Attrs: nounwind uwtable
define dso_local noundef i64 @pg_stat_reset_replication_slot(ptr noundef readonly captures(none) %0) local_unnamed_addr #0 {
  %2 = getelementptr inbounds nuw i8, ptr %0, i64 40
  %3 = load i8, ptr %2, align 8, !range !7, !noundef !8
  %4 = trunc nuw i8 %3 to i1
  br i1 %4, label %5, label %6

5:                                                ; preds = %1
  tail call void @pgstat_reset_of_kind(i32 noundef 4) #9
  br label %12

6:                                                ; preds = %1
  %7 = getelementptr inbounds nuw i8, ptr %0, i64 32
  %8 = load i64, ptr %7, align 8
  %9 = inttoptr i64 %8 to ptr
  %10 = tail call ptr @pg_detoast_datum_packed(ptr noundef %9) #9
  %11 = tail call ptr @text_to_cstring(ptr noundef %10) #9
  tail call void @pgstat_reset_replslot(ptr noundef %11) #9
  br label %12

12:                                               ; preds = %6, %5
  ret i64 0
}